target datalayout = "e-m:e-p270:32:32-p271:32:32-p272:64:64-i64:64-i128:128-f80:128-n8:16:32:64-S128"
target triple = "x86_64-pc-linux-gnu"

%struct.expert_field = type { i32, i32 }

@hf_mip6_opt_len = internal global i32 0, align 4
@ei_mip6_opt_len_invalid = internal global %struct.expert_field zeroinitializer, align 4
@.str.746 = private unnamed_addr constant [1 x i8] zeroinitializer, align 1
@.str.747 = private unnamed_addr constant [2 x i8] c"s\00", align 1
@.str.752 = private unnamed_addr constant [53 x i8] c"%s (with option length = %u byte%s; should be >= %u)\00", align 1

; Function Attrs: null_pointer_is_valid sspstrong uwtable
define internal ptr @mip6_var_option_header(ptr noundef %0, ptr noundef %1, ptr noundef %2, i32 noundef %3, i32 noundef %4, ptr noundef %5, i32 noundef %6, i32 noundef %7) #0 {
  %9 = alloca ptr, align 8
  %10 = alloca ptr, align 8
  %11 = alloca ptr, align 8
  %12 = alloca i32, align 4
  %13 = alloca i32, align 4
  %14 = alloca ptr, align 8
  %15 = alloca i32, align 4
  %16 = alloca i32, align 4
  %17 = alloca ptr, align 8
  %18 = alloca ptr, align 8
  store ptr %0, ptr %9, align 8
  store ptr %1, ptr %10, align 8
  store ptr %2, ptr %11, align 8
  store i32 %3, ptr %12, align 4
  store i32 %4, ptr %13, align 4
  store ptr %5, ptr %14, align 8
  store i32 %6, ptr %15, align 4
  store i32 %7, ptr %16, align 4
  call void @llvm.lifetime.start.p0(i64 8, ptr %17) #6
  call void @llvm.lifetime.start.p0(i64 8, ptr %18) #6
  %19 = load ptr, ptr %9, align 8
  %20 = load i32, ptr %12, align 4
  %21 = load ptr, ptr %11, align 8
  %22 = call ptr @proto_tree_add_item(ptr noundef %19, i32 noundef %20, ptr noundef %21, i32 noundef 0, i32 noundef -1, i32 noundef 0)
  %23 = load ptr, ptr %14, align 8
  store ptr %22, ptr %23, align 8
  %24 = load ptr, ptr %14, align 8
  %25 = load ptr, ptr %24, align 8
  %26 = load i32, ptr %13, align 4
  %27 = call ptr @proto_item_add_subtree(ptr noundef %25, i32 noundef %26)
  store ptr %27, ptr %17, align 8
  %28 = load ptr, ptr %17, align 8
  %29 = load i32, ptr @hf_mip6_opt_len, align 4
  %30 = load ptr, ptr %11, align 8
  %31 = call ptr @proto_tree_add_item(ptr noundef %28, i32 noundef %29, ptr noundef %30, i32 noundef 1, i32 noundef 1, i32 noundef 0)
  store ptr %31, ptr %18, align 8
  %32 = load i32, ptr %15, align 4
  %33 = load i32, ptr %16, align 4
  %34 = icmp ult i32 %32, %33
  br i1 %34, label %35, label %47

35:                                               ; preds = %8
  %36 = load ptr, ptr %10, align 8
  %37 = load ptr, ptr %18, align 8
  %38 = load i32, ptr %12, align 4
  %39 = call ptr @find_protocol_by_id(i32 noundef %38)
  %40 = call ptr @proto_get_protocol_short_name(ptr noundef %39)
  %41 = load i32, ptr %15, align 4
  %42 = load i32, ptr %15, align 4
  %43 = icmp eq i32 %42, 1
  %44 = select i1 %43, ptr @.str.746, ptr @.str.747
  %45 = load i32, ptr %16, align 4
  %46 = call ptr (ptr, ptr, ptr, ptr, ...) @expert_add_info_format(ptr noundef %36, ptr noundef %37, ptr noundef @ei_mip6_opt_len_invalid, ptr noundef @.str.752, ptr noundef %40, i32 noundef %41, ptr noundef %44, i32 noundef %45)
  br label %47

47:                                               ; preds = %35, %8
  %48 = load ptr, ptr %17, align 8
  call void @llvm.lifetime.end.p0(i64 8, ptr %18) #6
  call void @llvm.lifetime.end.p0(i64 8, ptr %17) #6
  ret ptr %48
}