; Function Attrs: null_pointer_is_valid sspstrong uwtable
define internal fastcc noundef ptr @mip6_var_option_header(ptr noundef %0, ptr noundef %1, ptr noundef %2, i32 noundef %3, i32 noundef %4, ptr noundef writeonly captures(none) initializes((0, 8)) %5, i32 noundef %6, i32 noundef range(i32 0, 7) %7) unnamed_addr #0 {
  %9 = tail call ptr @proto_tree_add_item(ptr noundef %0, i32 noundef %3, ptr noundef %2, i32 noundef 0, i32 noundef -1, i32 noundef 0)
  store ptr %9, ptr %5, align 8
  %10 = tail call ptr @proto_item_add_subtree(ptr noundef %9, i32 noundef %4)
  %11 = load i32, ptr @hf_mip6_opt_len, align 4
  %12 = tail call ptr @proto_tree_add_item(ptr noundef %10, i32 noundef %11, ptr noundef %2, i32 noundef 1, i32 noundef 1, i32 noundef 0)
  %13 = icmp ult i32 %6, %7
  br i1 %13, label %14, label %20

14:                                               ; preds = %8
  %15 = tail call ptr @find_protocol_by_id(i32 noundef %3)
  %16 = tail call ptr @proto_get_protocol_short_name(ptr noundef %15)
  %17 = icmp eq i32 %6, 1
  %18 = select i1 %17, ptr @.str.746, ptr @.str.747
  %19 = tail call ptr (ptr, ptr, ptr, ptr, ...) @expert_add_info_format(ptr noundef %1, ptr noundef %12, ptr noundef nonnull @ei_mip6_opt_len_invalid, ptr noundef nonnull @.str.752, ptr noundef %16, i32 noundef %6, ptr noundef nonnull %18, i32 noundef %7)
  br label %20

20:                                               ; preds = %14, %8
  ret ptr %10
}